#include <math.h>
#include <stdio.h>
#include <stdlib.h>
#include <string.h>

int fenjie(int x,int k)
{
	int t=1,i;
	if(k>x)
	{
		return 0;
	}
	for(i=k;i<x;i++)
	{
		if(x%i==0)
		{
			t=t+fenjie(x/i,i);
		}
	}
	return t;
}
int main()
{
	int j,p,n,a[101];
	scanf("%d",&n);
	for(j=0;j<=n-1;j++)
	{
		scanf("%d",&a[j]);
	}
	for(j=0;j<=n-1;j++)
	{
		printf("%d",fenjie(a[j],2));
		printf("\n");
	}
	return 0;
}